; Function Attrs: mustprogress uwtable
define void @_ZN6icu_7512FixedDecimalC2Edilii(ptr noundef nonnull align 8 dereferenceable(64) %this, double noundef %n, i32 noundef %v, i64 noundef %f, i32 noundef %e, i32 noundef %c) unnamed_addr #1 align 2 personality ptr @__gxx_personality_v0 {
entry:
  %0 = getelementptr inbounds i8, ptr %this, i64 8
  store ptr getelementptr inbounds ({ [8 x ptr], [5 x ptr] }, ptr @_ZTVN6icu_7512FixedDecimalE, i64 0, i32 0, i64 2), ptr %this, align 8
  store ptr getelementptr inbounds ({ [8 x ptr], [5 x ptr] }, ptr @_ZTVN6icu_7512FixedDecimalE, i64 0, i32 1, i64 2), ptr %0, align 8
  %cmp.i = fcmp olt double %n, 0.000000e+00
  %conv.i = zext i1 %cmp.i to i8
  %isNegative.i = getelementptr inbounds i8, ptr %this, i64 61
  store i8 %conv.i, ptr %isNegative.i, align 1
  %1 = tail call double @llvm.fabs.f64(double %n)
  %source.i = getelementptr inbounds i8, ptr %this, i64 16
  store double %1, ptr %source.i, align 8
  %call.i1 = invoke signext i8 @uprv_isNaN_75(double noundef %1)
          to label %call.i.noexc unwind label %lpad

call.i.noexc:                                     ; preds = %entry
  %_isNaN.i = getelementptr inbounds i8, ptr %this, i64 62
  store i8 %call.i1, ptr %_isNaN.i, align 2
  %2 = load double, ptr %source.i, align 8
  %call4.i2 = invoke signext i8 @uprv_isInfinite_75(double noundef %2)
          to label %call4.i.noexc unwind label %lpad

call4.i.noexc:                                    ; preds = %call.i.noexc
  %_isInfinite.i = getelementptr inbounds i8, ptr %this, i64 63
  store i8 %call4.i2, ptr %_isInfinite.i, align 1
  %exponent.i = getelementptr inbounds i8, ptr %this, i64 56
  %cmp6.i = icmp eq i32 %e, 0
  %spec.select.i = select i1 %cmp6.i, i32 %c, i32 %e
  store i32 %spec.select.i, ptr %exponent.i, align 8
  %3 = load i8, ptr %_isNaN.i, align 2
  %tobool.not.i = icmp eq i8 %3, 0
  %tobool10.not.i = icmp eq i8 %call4.i2, 0
  %or.cond.i = select i1 %tobool.not.i, i1 %tobool10.not.i, i1 false
  br i1 %or.cond.i, label %if.end21.i, label %if.end21.thread.i

if.end21.thread.i:                                ; preds = %call4.i.noexc
  %intValue.i = getelementptr inbounds i8, ptr %this, i64 48
  store i64 0, ptr %intValue.i, align 8
  %_hasIntegerValue.i = getelementptr inbounds i8, ptr %this, i64 60
  store i8 0, ptr %_hasIntegerValue.i, align 4
  %visibleDecimalDigitCount8.i = getelementptr inbounds i8, ptr %this, i64 24
  store i32 0, ptr %visibleDecimalDigitCount8.i, align 8
  %decimalDigits9.i = getelementptr inbounds i8, ptr %this, i64 32
  store i64 0, ptr %decimalDigits9.i, align 8
  br label %invoke.cont

if.end21.i:                                       ; preds = %call4.i.noexc
  %4 = load double, ptr %source.i, align 8
  %conv13.i = fptosi double %4 to i64
  %intValue14.i = getelementptr inbounds i8, ptr %this, i64 48
  store i64 %conv13.i, ptr %intValue14.i, align 8
  %conv17.i = sitofp i64 %conv13.i to double
  %cmp18.i = fcmp oeq double %4, %conv17.i
  %conv19.i = zext i1 %cmp18.i to i8
  %_hasIntegerValue20.i = getelementptr inbounds i8, ptr %this, i64 60
  store i8 %conv19.i, ptr %_hasIntegerValue20.i, align 4
  %visibleDecimalDigitCount.i = getelementptr inbounds i8, ptr %this, i64 24
  store i32 %v, ptr %visibleDecimalDigitCount.i, align 8
  %decimalDigits.i = getelementptr inbounds i8, ptr %this, i64 32
  store i64 %f, ptr %decimalDigits.i, align 8
  %cmp22.i = icmp eq i64 %f, 0
  br i1 %cmp22.i, label %invoke.cont, label %while.cond.preheader.i

while.cond.preheader.i:                           ; preds = %if.end21.i
  %rem11.i = srem i64 %f, 10
  %cmp2512.i = icmp eq i64 %rem11.i, 0
  br i1 %cmp2512.i, label %while.body.i, label %invoke.cont

while.body.i:                                     ; preds = %while.cond.preheader.i, %while.body.i
  %fdwtz.013.i = phi i64 [ %div.i, %while.body.i ], [ %f, %while.cond.preheader.i ]
  %div.i = sdiv i64 %fdwtz.013.i, 10
  %rem.i = srem i64 %div.i, 10
  %cmp25.i = icmp eq i64 %rem.i, 0
  br i1 %cmp25.i, label %while.body.i, label %invoke.cont, !llvm.loop !51

invoke.cont:                                      ; preds = %while.body.i, %while.cond.preheader.i, %if.end21.i, %if.end21.thread.i
  %fdwtz.0.lcssa.sink.i = phi i64 [ 0, %if.end21.thread.i ], [ 0, %if.end21.i ], [ %f, %while.cond.preheader.i ], [ %div.i, %while.body.i ]
  %decimalDigitsWithoutTrailingZeros26.i = getelementptr inbounds i8, ptr %this, i64 40
  store i64 %fdwtz.0.lcssa.sink.i, ptr %decimalDigitsWithoutTrailingZeros26.i, align 8
  ret void

lpad:                                             ; preds = %call.i.noexc, %entry
  %5 = landingpad { ptr, i32 }
          cleanup
  tail call void @_ZN6icu_757UObjectD2Ev(ptr noundef nonnull align 8 dereferenceable(8) %0) #25
  tail call void @_ZN6icu_7513IFixedDecimalD2Ev(ptr noundef nonnull align 8 dereferenceable(8) %this) #25
  resume { ptr, i32 } %5
}